; Function Attrs: nounwind uwtable
define ptr @l_Lean_Elab_Term_elabSorry___rarg(ptr noundef %0, ptr readnone captures(none) %1, ptr readnone captures(none) %2, ptr noundef %3, ptr noundef %4, ptr noundef %5, ptr noundef %6, ptr noundef %7) local_unnamed_addr #0 {
  %9 = ptrtoint ptr %0 to i64
  %10 = and i64 %9, 1
  %.not.i41 = icmp eq i64 %10, 0
  br i1 %.not.i41, label %14, label %11

11:                                               ; preds = %8
  %12 = lshr i64 %9, 1
  %13 = trunc i64 %12 to i32
  br label %lean_obj_tag.exit

14:                                               ; preds = %8
  %15 = getelementptr i8, ptr %0, i64 4
  %.val.i = load i32, ptr %15, align 4
  %16 = lshr i32 %.val.i, 24
  br label %lean_obj_tag.exit

lean_obj_tag.exit:                                ; preds = %11, %14
  %.0.i = phi i32 [ %13, %11 ], [ %16, %14 ]
  %17 = icmp eq i32 %.0.i, 0
  br i1 %17, label %18, label %58

18:                                               ; preds = %lean_obj_tag.exit
  %19 = ptrtoint ptr %3 to i64
  %20 = and i64 %19, 1
  %.not54 = icmp eq i64 %20, 0
  br i1 %.not54, label %21, label %lean_inc.exit37

21:                                               ; preds = %18
  %.val.i42 = load i32, ptr %3, align 4, !tbaa !4
  %22 = icmp sgt i32 %.val.i42, 0
  br i1 %22, label %23, label %25, !prof !9

23:                                               ; preds = %21
  %24 = add nuw i32 %.val.i42, 1
  store i32 %24, ptr %3, align 4, !tbaa !4
  br label %lean_inc.exit37

25:                                               ; preds = %21
  %.not.i43 = icmp eq i32 %.val.i42, 0
  br i1 %.not.i43, label %lean_inc.exit37, label %26

26:                                               ; preds = %25
  tail call void @lean_inc_ref_cold(ptr noundef nonnull %3) #6
  br label %lean_inc.exit37

lean_inc.exit37:                                  ; preds = %26, %25, %23, %18
  %27 = tail call ptr @l_Lean_Meta_mkFreshTypeMVar(i8 noundef zeroext 0, ptr noundef nonnull inttoptr (i64 1 to ptr), ptr noundef %3, ptr noundef %4, ptr noundef %5, ptr noundef %6, ptr noundef %7) #6
  %28 = getelementptr inbounds nuw i8, ptr %27, i64 8
  %29 = load ptr, ptr %28, align 8, !tbaa !10
  %30 = ptrtoint ptr %29 to i64
  %31 = and i64 %30, 1
  %.not55 = icmp eq i64 %31, 0
  br i1 %.not55, label %32, label %lean_inc.exit36

32:                                               ; preds = %lean_inc.exit37
  %.val.i44 = load i32, ptr %29, align 4, !tbaa !4
  %33 = icmp sgt i32 %.val.i44, 0
  br i1 %33, label %34, label %36, !prof !9

34:                                               ; preds = %32
  %35 = add nuw i32 %.val.i44, 1
  store i32 %35, ptr %29, align 4, !tbaa !4
  br label %lean_inc.exit36

36:                                               ; preds = %32
  %.not.i45 = icmp eq i32 %.val.i44, 0
  br i1 %.not.i45, label %lean_inc.exit36, label %37

37:                                               ; preds = %36
  tail call void @lean_inc_ref_cold(ptr noundef nonnull %29) #6
  br label %lean_inc.exit36

lean_inc.exit36:                                  ; preds = %37, %36, %34, %lean_inc.exit37
  %38 = getelementptr inbounds nuw i8, ptr %27, i64 16
  %39 = load ptr, ptr %38, align 8, !tbaa !10
  %40 = ptrtoint ptr %39 to i64
  %41 = and i64 %40, 1
  %.not56 = icmp eq i64 %41, 0
  br i1 %.not56, label %42, label %lean_inc.exit35

42:                                               ; preds = %lean_inc.exit36
  %.val.i47 = load i32, ptr %39, align 4, !tbaa !4
  %43 = icmp sgt i32 %.val.i47, 0
  br i1 %43, label %44, label %46, !prof !9

44:                                               ; preds = %42
  %45 = add nuw i32 %.val.i47, 1
  store i32 %45, ptr %39, align 4, !tbaa !4
  br label %lean_inc.exit35

46:                                               ; preds = %42
  %.not.i48 = icmp eq i32 %.val.i47, 0
  br i1 %.not.i48, label %lean_inc.exit35, label %47

47:                                               ; preds = %46
  tail call void @lean_inc_ref_cold(ptr noundef nonnull %39) #6
  br label %lean_inc.exit35

lean_inc.exit35:                                  ; preds = %47, %46, %44, %lean_inc.exit36
  %48 = ptrtoint ptr %27 to i64
  %49 = and i64 %48, 1
  %.not57 = icmp eq i64 %49, 0
  br i1 %.not57, label %50, label %lean_dec.exit38

50:                                               ; preds = %lean_inc.exit35
  %51 = load i32, ptr %27, align 4, !tbaa !4
  %52 = icmp sgt i32 %51, 1
  br i1 %52, label %53, label %55, !prof !9

53:                                               ; preds = %50
  %54 = add nsw i32 %51, -1
  store i32 %54, ptr %27, align 4, !tbaa !4
  br label %lean_dec.exit38

55:                                               ; preds = %50
  %.not.i = icmp eq i32 %51, 0
  br i1 %.not.i, label %lean_dec.exit38, label %56

56:                                               ; preds = %55
  tail call void @lean_dec_ref_cold(ptr noundef nonnull %27) #6
  br label %lean_dec.exit38

lean_dec.exit38:                                  ; preds = %56, %55, %53, %lean_inc.exit35
  %57 = tail call ptr @l_Lean_Meta_mkLabeledSorry(ptr noundef %29, i8 noundef zeroext 0, i8 noundef zeroext 1, ptr noundef %3, ptr noundef %4, ptr noundef %5, ptr noundef %6, ptr noundef %39) #6
  br label %77

58:                                               ; preds = %lean_obj_tag.exit
  %59 = getelementptr inbounds nuw i8, ptr %0, i64 8
  %60 = load ptr, ptr %59, align 8, !tbaa !10
  %61 = ptrtoint ptr %60 to i64
  %62 = and i64 %61, 1
  %.not = icmp eq i64 %62, 0
  br i1 %.not, label %63, label %lean_inc.exit

63:                                               ; preds = %58
  %.val.i50 = load i32, ptr %60, align 4, !tbaa !4
  %64 = icmp sgt i32 %.val.i50, 0
  br i1 %64, label %65, label %67, !prof !9

65:                                               ; preds = %63
  %66 = add nuw i32 %.val.i50, 1
  store i32 %66, ptr %60, align 4, !tbaa !4
  br label %lean_inc.exit

67:                                               ; preds = %63
  %.not.i51 = icmp eq i32 %.val.i50, 0
  br i1 %.not.i51, label %lean_inc.exit, label %68

68:                                               ; preds = %67
  tail call void @lean_inc_ref_cold(ptr noundef nonnull %60) #6
  br label %lean_inc.exit

lean_inc.exit:                                    ; preds = %68, %67, %65, %58
  br i1 %.not.i41, label %69, label %lean_dec.exit

69:                                               ; preds = %lean_inc.exit
  %70 = load i32, ptr %0, align 4, !tbaa !4
  %71 = icmp sgt i32 %70, 1
  br i1 %71, label %72, label %74, !prof !9

72:                                               ; preds = %69
  %73 = add nsw i32 %70, -1
  store i32 %73, ptr %0, align 4, !tbaa !4
  br label %lean_dec.exit

74:                                               ; preds = %69
  %.not.i39 = icmp eq i32 %70, 0
  br i1 %.not.i39, label %lean_dec.exit, label %75

75:                                               ; preds = %74
  tail call void @lean_dec_ref_cold(ptr noundef nonnull %0) #6
  br label %lean_dec.exit

lean_dec.exit:                                    ; preds = %75, %74, %72, %lean_inc.exit
  %76 = tail call ptr @l_Lean_Meta_mkLabeledSorry(ptr noundef %60, i8 noundef zeroext 0, i8 noundef zeroext 1, ptr noundef %3, ptr noundef %4, ptr noundef %5, ptr noundef %6, ptr noundef %7) #6
  br label %77

77:                                               ; preds = %lean_dec.exit, %lean_dec.exit38
  %.0 = phi ptr [ %57, %lean_dec.exit38 ], [ %76, %lean_dec.exit ]
  ret ptr %.0
}